; ModuleID = 'source-C-CXX/41/114.cpp'
source_filename = "source-C-CXX/41/114.cpp"
target datalayout = "e-m:e-p270:32:32-p271:32:32-p272:64:64-i64:64-f80:128-n8:16:32:64-S128"
target triple = "x86_64-pc-linux-gnu"

%"class.std::ios_base::Init" = type { i8 }
%"class.std::basic_istream" = type { i32 (...)**, i64, %"class.std::basic_ios" }
%"class.std::basic_ios" = type { %"class.std::ios_base", %"class.std::basic_ostream"*, i8, i8, %"class.std::basic_streambuf"*, %"class.std::ctype"*, %"class.std::num_put"*, %"class.std::num_get"* }
%"class.std::ios_base" = type { i32 (...)**, i64, i64, i32, i32, i32, %"struct.std::ios_base::_Callback_list"*, %"struct.std::ios_base::_Words", [8 x %"struct.std::ios_base::_Words"], i32, %"struct.std::ios_base::_Words"*, %"class.std::locale" }
%"struct.std::ios_base::_Callback_list" = type { %"struct.std::ios_base::_Callback_list"*, void (i32, %"class.std::ios_base"*, i32)*, i32, i32 }
%"struct.std::ios_base::_Words" = type { i8*, i64 }
%"class.std::locale" = type { %"class.std::locale::_Impl"* }
%"class.std::locale::_Impl" = type { i32, %"class.std::locale::facet"**, i64, %"class.std::locale::facet"**, i8** }
%"class.std::locale::facet" = type <{ i32 (...)**, i32, [4 x i8] }>
%"class.std::basic_ostream" = type { i32 (...)**, %"class.std::basic_ios" }
%"class.std::basic_streambuf" = type { i32 (...)**, i8*, i8*, i8*, i8*, i8*, i8*, %"class.std::locale" }
%"class.std::ctype" = type <{ %"class.std::locale::facet.base", [4 x i8], %struct.__locale_struct*, i8, [7 x i8], i32*, i32*, i16*, i8, [256 x i8], [256 x i8], i8, [6 x i8] }>
%"class.std::locale::facet.base" = type <{ i32 (...)**, i32 }>
%struct.__locale_struct = type { [13 x %struct.__locale_data*], i16*, i32*, i32*, [13 x i8*] }
%struct.__locale_data = type opaque
%"class.std::num_put" = type { %"class.std::locale::facet.base", [4 x i8] }
%"class.std::num_get" = type { %"class.std::locale::facet.base", [4 x i8] }

@_ZStL8__ioinit = internal global %"class.std::ios_base::Init" zeroinitializer, align 1
@__dso_handle = external hidden global i8
@_ZSt3cin = external global %"class.std::basic_istream", align 8
@_ZSt4cout = external global %"class.std::basic_ostream", align 8
@llvm.global_ctors = appending global [1 x { i32, void ()*, i8* }] [{ i32, void ()*, i8* } { i32 65535, void ()* @_GLOBAL__sub_I_114.cpp, i8* null }]

declare void @_ZNSt8ios_base4InitC1Ev(%"class.std::ios_base::Init"* nonnull align 1 dereferenceable(1)) unnamed_addr #0

; Function Attrs: nounwind
declare void @_ZNSt8ios_base4InitD1Ev(%"class.std::ios_base::Init"* nonnull align 1 dereferenceable(1)) unnamed_addr #1

; Function Attrs: nofree nounwind
declare i32 @__cxa_atexit(void (i8*)*, i8*, i8*) local_unnamed_addr #2

; Function Attrs: mustprogress norecurse sspstrong uwtable
define dso_local i32 @main() local_unnamed_addr #3 {
  %1 = alloca i8, align 1
  %2 = alloca i32, align 4
  %3 = alloca [100000 x i32], align 16
  %4 = alloca i32, align 4
  %5 = bitcast i32* %2 to i8*
  call void @llvm.lifetime.start.p0i8(i64 4, i8* nonnull %5) #6
  %6 = bitcast [100000 x i32]* %3 to i8*
  call void @llvm.lifetime.start.p0i8(i64 400000, i8* nonnull %6) #6
  %7 = bitcast i32* %4 to i8*
  call void @llvm.lifetime.start.p0i8(i64 4, i8* nonnull %7) #6
  %8 = call nonnull align 8 dereferenceable(16) %"class.std::basic_istream"* @_ZNSirsERi(%"class.std::basic_istream"* nonnull align 8 dereferenceable(16) @_ZSt3cin, i32* nonnull align 4 dereferenceable(4) %2)
  %9 = load i32, i32* %2, align 4, !tbaa !5
  %10 = icmp sgt i32 %9, 0
  br i1 %10, label %22, label %11

11:                                               ; preds = %22, %0
  %12 = call nonnull align 8 dereferenceable(16) %"class.std::basic_istream"* @_ZNSirsERi(%"class.std::basic_istream"* nonnull align 8 dereferenceable(16) @_ZSt3cin, i32* nonnull align 4 dereferenceable(4) %4)
  %13 = load i32, i32* %2, align 4, !tbaa !5
  %14 = load i32, i32* %4, align 4
  %15 = icmp sgt i32 %13, 0
  br i1 %15, label %16, label %45

16:                                               ; preds = %11
  %17 = zext i32 %13 to i64
  %18 = and i64 %17, 1
  %19 = icmp eq i32 %13, 1
  br i1 %19, label %30, label %20

20:                                               ; preds = %16
  %21 = and i64 %17, 4294967294
  br label %53

22:                                               ; preds = %0, %22
  %23 = phi i64 [ %26, %22 ], [ 0, %0 ]
  %24 = getelementptr inbounds [100000 x i32], [100000 x i32]* %3, i64 0, i64 %23
  %25 = call nonnull align 8 dereferenceable(16) %"class.std::basic_istream"* @_ZNSirsERi(%"class.std::basic_istream"* nonnull align 8 dereferenceable(16) @_ZSt3cin, i32* nonnull align 4 dereferenceable(4) %24)
  %26 = add nuw nsw i64 %23, 1
  %27 = load i32, i32* %2, align 4, !tbaa !5
  %28 = sext i32 %27 to i64
  %29 = icmp slt i64 %26, %28
  br i1 %29, label %22, label %11, !llvm.loop !9

30:                                               ; preds = %92, %16
  %31 = phi i32 [ undef, %16 ], [ %93, %92 ]
  %32 = phi i64 [ 0, %16 ], [ %95, %92 ]
  %33 = phi i32 [ 0, %16 ], [ %94, %92 ]
  %34 = phi i32 [ 0, %16 ], [ %93, %92 ]
  %35 = icmp eq i64 %18, 0
  br i1 %35, label %45, label %36

36:                                               ; preds = %30
  %37 = getelementptr inbounds [100000 x i32], [100000 x i32]* %3, i64 0, i64 %32
  %38 = load i32, i32* %37, align 4, !tbaa !5
  %39 = icmp eq i32 %38, %14
  br i1 %39, label %43, label %40

40:                                               ; preds = %36
  %41 = sext i32 %33 to i64
  %42 = getelementptr inbounds [100000 x i32], [100000 x i32]* %3, i64 0, i64 %41
  store i32 %38, i32* %42, align 4, !tbaa !5
  br label %45

43:                                               ; preds = %36
  %44 = add nsw i32 %34, 1
  br label %45

45:                                               ; preds = %30, %40, %43, %11
  %46 = phi i32 [ 0, %11 ], [ %31, %30 ], [ %34, %40 ], [ %44, %43 ]
  %47 = getelementptr inbounds [100000 x i32], [100000 x i32]* %3, i64 0, i64 0
  %48 = load i32, i32* %47, align 16, !tbaa !5
  %49 = call nonnull align 8 dereferenceable(8) %"class.std::basic_ostream"* @_ZNSolsEi(%"class.std::basic_ostream"* nonnull align 8 dereferenceable(8) @_ZSt4cout, i32 %48)
  %50 = load i32, i32* %2, align 4, !tbaa !5
  %51 = sub nsw i32 %50, %46
  %52 = icmp sgt i32 %51, 1
  br i1 %52, label %75, label %74

53:                                               ; preds = %92, %20
  %54 = phi i64 [ 0, %20 ], [ %95, %92 ]
  %55 = phi i32 [ 0, %20 ], [ %94, %92 ]
  %56 = phi i32 [ 0, %20 ], [ %93, %92 ]
  %57 = phi i64 [ %21, %20 ], [ %96, %92 ]
  %58 = getelementptr inbounds [100000 x i32], [100000 x i32]* %3, i64 0, i64 %54
  %59 = load i32, i32* %58, align 8, !tbaa !5
  %60 = icmp eq i32 %59, %14
  br i1 %60, label %65, label %61

61:                                               ; preds = %53
  %62 = add nsw i32 %55, 1
  %63 = sext i32 %55 to i64
  %64 = getelementptr inbounds [100000 x i32], [100000 x i32]* %3, i64 0, i64 %63
  store i32 %59, i32* %64, align 4, !tbaa !5
  br label %67

65:                                               ; preds = %53
  %66 = add nsw i32 %56, 1
  br label %67

67:                                               ; preds = %61, %65
  %68 = phi i32 [ %56, %61 ], [ %66, %65 ]
  %69 = phi i32 [ %62, %61 ], [ %55, %65 ]
  %70 = or i64 %54, 1
  %71 = getelementptr inbounds [100000 x i32], [100000 x i32]* %3, i64 0, i64 %70
  %72 = load i32, i32* %71, align 4, !tbaa !5
  %73 = icmp eq i32 %72, %14
  br i1 %73, label %90, label %86

74:                                               ; preds = %75, %45
  call void @llvm.lifetime.end.p0i8(i64 4, i8* nonnull %7) #6
  call void @llvm.lifetime.end.p0i8(i64 400000, i8* nonnull %6) #6
  call void @llvm.lifetime.end.p0i8(i64 4, i8* nonnull %5) #6
  ret i32 0

75:                                               ; preds = %45, %75
  %76 = phi i64 [ %81, %75 ], [ 1, %45 ]
  call void @llvm.lifetime.start.p0i8(i64 1, i8* nonnull %1)
  store i8 32, i8* %1, align 1, !tbaa !11
  %77 = call nonnull align 8 dereferenceable(8) %"class.std::basic_ostream"* @_ZSt16__ostream_insertIcSt11char_traitsIcEERSt13basic_ostreamIT_T0_ES6_PKS3_l(%"class.std::basic_ostream"* nonnull align 8 dereferenceable(8) @_ZSt4cout, i8* nonnull %1, i64 1)
  call void @llvm.lifetime.end.p0i8(i64 1, i8* nonnull %1)
  %78 = getelementptr inbounds [100000 x i32], [100000 x i32]* %3, i64 0, i64 %76
  %79 = load i32, i32* %78, align 4, !tbaa !5
  %80 = call nonnull align 8 dereferenceable(8) %"class.std::basic_ostream"* @_ZNSolsEi(%"class.std::basic_ostream"* nonnull align 8 dereferenceable(8) %77, i32 %79)
  %81 = add nuw nsw i64 %76, 1
  %82 = load i32, i32* %2, align 4, !tbaa !5
  %83 = sub nsw i32 %82, %46
  %84 = sext i32 %83 to i64
  %85 = icmp slt i64 %81, %84
  br i1 %85, label %75, label %74, !llvm.loop !12

86:                                               ; preds = %67
  %87 = add nsw i32 %69, 1
  %88 = sext i32 %69 to i64
  %89 = getelementptr inbounds [100000 x i32], [100000 x i32]* %3, i64 0, i64 %88
  store i32 %72, i32* %89, align 4, !tbaa !5
  br label %92

90:                                               ; preds = %67
  %91 = add nsw i32 %68, 1
  br label %92

92:                                               ; preds = %90, %86
  %93 = phi i32 [ %68, %86 ], [ %91, %90 ]
  %94 = phi i32 [ %87, %86 ], [ %69, %90 ]
  %95 = add nuw nsw i64 %54, 2
  %96 = add i64 %57, -2
  %97 = icmp eq i64 %96, 0
  br i1 %97, label %30, label %53, !llvm.loop !13
}

; Function Attrs: argmemonly mustprogress nofree nosync nounwind willreturn
declare void @llvm.lifetime.start.p0i8(i64 immarg, i8* nocapture) #4

declare nonnull align 8 dereferenceable(16) %"class.std::basic_istream"* @_ZNSirsERi(%"class.std::basic_istream"* nonnull align 8 dereferenceable(16), i32* nonnull align 4 dereferenceable(4)) local_unnamed_addr #0

; Function Attrs: argmemonly mustprogress nofree nosync nounwind willreturn
declare void @llvm.lifetime.end.p0i8(i64 immarg, i8* nocapture) #4

declare nonnull align 8 dereferenceable(8) %"class.std::basic_ostream"* @_ZNSolsEi(%"class.std::basic_ostream"* nonnull align 8 dereferenceable(8), i32) local_unnamed_addr #0

declare nonnull align 8 dereferenceable(8) %"class.std::basic_ostream"* @_ZSt16__ostream_insertIcSt11char_traitsIcEERSt13basic_ostreamIT_T0_ES6_PKS3_l(%"class.std::basic_ostream"* nonnull align 8 dereferenceable(8), i8*, i64) local_unnamed_addr #0

; Function Attrs: sspstrong uwtable
define internal void @_GLOBAL__sub_I_114.cpp() #5 section ".text.startup" {
  tail call void @_ZNSt8ios_base4InitC1Ev(%"class.std::ios_base::Init"* nonnull align 1 dereferenceable(1) @_ZStL8__ioinit)
  %1 = tail call i32 @__cxa_atexit(void (i8*)* bitcast (void (%"class.std::ios_base::Init"*)* @_ZNSt8ios_base4InitD1Ev to void (i8*)*), i8* getelementptr inbounds (%"class.std::ios_base::Init", %"class.std::ios_base::Init"* @_ZStL8__ioinit, i64 0, i32 0), i8* nonnull @__dso_handle) #6
  ret void
}


!llvm.module.flags = !{!0, !1, !2, !3}
!llvm.ident = !{!4}

!0 = !{i32 1, !"wchar_size", i32 4}
!1 = !{i32 7, !"PIC Level", i32 2}
!2 = !{i32 7, !"PIE Level", i32 2}
!3 = !{i32 7, !"uwtable", i32 1}
!4 = !{!"clang version 13.0.0"}
!5 = !{!6, !6, i64 0}
!6 = !{!"int", !7, i64 0}
!7 = !{!"omnipotent char", !8, i64 0}
!8 = !{!"Simple C++ TBAA"}
!9 = distinct !{!9, !10}
!10 = !{!"llvm.loop.mustprogress"}
!11 = !{!7, !7, i64 0}
!12 = distinct !{!12, !10}
!13 = distinct !{!13, !10}
